; Function Attrs: nounwind uwtable
define internal fastcc void @readpkey(ptr noundef nonnull %0, i32 noundef %1) unnamed_addr #0 {
  %3 = tail call ptr @BIO_new_mem_buf(ptr noundef nonnull %0, i32 noundef %1) #9
  %4 = icmp eq ptr %3, null
  br i1 %4, label %5, label %7

5:                                                ; preds = %2
  %6 = load ptr, ptr @stderr, align 8, !tbaa !28
  tail call void @ERR_print_errors_fp(ptr noundef %6) #9
  tail call void @exit(i32 noundef 1) #11
  unreachable

7:                                                ; preds = %2
  %8 = tail call ptr @PEM_read_bio_PrivateKey(ptr noundef nonnull %3, ptr noundef null, ptr noundef null, ptr noundef null) #9
  %9 = icmp eq ptr %8, null
  br i1 %9, label %10, label %12

10:                                               ; preds = %7
  %11 = load ptr, ptr @stderr, align 8, !tbaa !28
  tail call void @ERR_print_errors_fp(ptr noundef %11) #9
  tail call void @exit(i32 noundef 1) #11
  unreachable

12:                                               ; preds = %7
  tail call void @EVP_PKEY_free(ptr noundef nonnull %8) #9
  %13 = tail call i32 @BIO_free(ptr noundef nonnull %3) #9
  ret void
}